target datalayout = "e-m:e-p270:32:32-p271:32:32-p272:64:64-i64:64-i128:128-f80:128-n8:16:32:64-S128"
target triple = "x86_64-pc-linux-gnu"

%struct.ident_t = type { i32, i32, i32, i32, ptr }
%"class.LightGBM::ObjectiveFunction" = type { ptr }
%"class.LightGBM::CrossEntropyLambda" = type <{ %"class.LightGBM::ObjectiveFunction", i32, [4 x i8], ptr, ptr, float, float, i8, [7 x i8] }>

@1 = private unnamed_addr constant %struct.ident_t { i32 0, i32 514, i32 0, i32 22, ptr @0 }, align 8

; Function Attrs: alwaysinline norecurse nounwind uwtable
define internal void @_ZNK8LightGBM18CrossEntropyLambda12GetGradientsEPKdPfS3_.omp_outlined(ptr noalias noundef %0, ptr noalias noundef %1, ptr noundef %2, ptr noundef nonnull align 8 dereferenceable(8) %3, ptr noundef nonnull align 8 dereferenceable(8) %4, ptr noundef nonnull align 8 dereferenceable(8) %5) #16 {
  %7 = alloca ptr, align 8
  %8 = alloca ptr, align 8
  %9 = alloca ptr, align 8
  %10 = alloca ptr, align 8
  %11 = alloca ptr, align 8
  %12 = alloca ptr, align 8
  %13 = alloca i32, align 4
  %14 = alloca i32, align 4
  %15 = alloca i32, align 4
  %16 = alloca i32, align 4
  %17 = alloca i32, align 4
  %18 = alloca i32, align 4
  %19 = alloca i32, align 4
  %20 = alloca i32, align 4
  %21 = alloca i32, align 4
  %22 = alloca double, align 8
  store ptr %0, ptr %7, align 8, !tbaa !193
  store ptr %1, ptr %8, align 8, !tbaa !193
  store ptr %2, ptr %9, align 8, !tbaa !151
  store ptr %3, ptr %10, align 8, !tbaa !224
  store ptr %4, ptr %11, align 8, !tbaa !216
  store ptr %5, ptr %12, align 8, !tbaa !216
  %23 = load ptr, ptr %9, align 8, !tbaa !151
  %24 = load ptr, ptr %10, align 8, !tbaa !224
  %25 = load ptr, ptr %11, align 8, !tbaa !216
  %26 = load ptr, ptr %12, align 8, !tbaa !216
  call void @llvm.lifetime.start.p0(i64 4, ptr %13) #3
  call void @llvm.lifetime.start.p0(i64 4, ptr %14) #3
  %27 = getelementptr inbounds nuw %"class.LightGBM::CrossEntropyLambda", ptr %23, i32 0, i32 1
  %28 = load i32, ptr %27, align 8, !tbaa !818
  store i32 %28, ptr %14, align 4, !tbaa !141
  call void @llvm.lifetime.start.p0(i64 4, ptr %15) #3
  %29 = load i32, ptr %14, align 4, !tbaa !141
  %30 = sub nsw i32 %29, 0
  %31 = sdiv i32 %30, 1
  %32 = sub nsw i32 %31, 1
  store i32 %32, ptr %15, align 4, !tbaa !141
  call void @llvm.lifetime.start.p0(i64 4, ptr %16) #3
  store i32 0, ptr %16, align 4, !tbaa !141
  call void @llvm.lifetime.end.p0(i64 4, ptr %16) #3
  %33 = load i32, ptr %14, align 4, !tbaa !141
  %34 = icmp slt i32 0, %33
  br i1 %34, label %35, label %98

35:                                               ; preds = %6
  call void @llvm.lifetime.start.p0(i64 4, ptr %17) #3
  store i32 0, ptr %17, align 4, !tbaa !141
  call void @llvm.lifetime.start.p0(i64 4, ptr %18) #3
  %36 = load i32, ptr %15, align 4, !tbaa !141
  store i32 %36, ptr %18, align 4, !tbaa !141
  call void @llvm.lifetime.start.p0(i64 4, ptr %19) #3
  store i32 1, ptr %19, align 4, !tbaa !141
  call void @llvm.lifetime.start.p0(i64 4, ptr %20) #3
  store i32 0, ptr %20, align 4, !tbaa !141
  call void @llvm.lifetime.start.p0(i64 4, ptr %21) #3
  %37 = load ptr, ptr %7, align 8
  %38 = load i32, ptr %37, align 4, !tbaa !141
  call void @__kmpc_for_static_init_4(ptr @1, i32 %38, i32 34, ptr %20, ptr %17, ptr %18, ptr %19, i32 1, i32 1)
  %39 = load i32, ptr %18, align 4, !tbaa !141
  %40 = load i32, ptr %15, align 4, !tbaa !141
  %41 = icmp sgt i32 %39, %40
  br i1 %41, label %42, label %44

42:                                               ; preds = %35
  %43 = load i32, ptr %15, align 4, !tbaa !141
  br label %46

44:                                               ; preds = %35
  %45 = load i32, ptr %18, align 4, !tbaa !141
  br label %46

46:                                               ; preds = %44, %42
  %47 = phi i32 [ %43, %42 ], [ %45, %44 ]
  store i32 %47, ptr %18, align 4, !tbaa !141
  %48 = load i32, ptr %17, align 4, !tbaa !141
  store i32 %48, ptr %13, align 4, !tbaa !141
  br label %49

49:                                               ; preds = %91, %46
  %50 = load i32, ptr %13, align 4, !tbaa !141
  %51 = load i32, ptr %18, align 4, !tbaa !141
  %52 = icmp sle i32 %50, %51
  br i1 %52, label %54, label %53

53:                                               ; preds = %49
  br label %94

54:                                               ; preds = %49
  %55 = load i32, ptr %13, align 4, !tbaa !141
  %56 = mul nsw i32 %55, 1
  %57 = add nsw i32 0, %56
  store i32 %57, ptr %21, align 4, !tbaa !141
  call void @llvm.lifetime.start.p0(i64 8, ptr %22) #3
  %58 = load ptr, ptr %24, align 8, !tbaa !191
  %59 = load i32, ptr %21, align 4, !tbaa !141
  %60 = sext i32 %59 to i64
  %61 = getelementptr inbounds double, ptr %58, i64 %60
  %62 = load double, ptr %61, align 8, !tbaa !194
  %63 = fneg double %62
  %64 = call double @exp(double noundef %63) #3, !tbaa !141
  %65 = fadd double 1.000000e+00, %64
  %66 = fdiv double 1.000000e+00, %65
  store double %66, ptr %22, align 8, !tbaa !194
  %67 = load double, ptr %22, align 8, !tbaa !194
  %68 = getelementptr inbounds nuw %"class.LightGBM::CrossEntropyLambda", ptr %23, i32 0, i32 3
  %69 = load ptr, ptr %68, align 8, !tbaa !819
  %70 = load i32, ptr %21, align 4, !tbaa !141
  %71 = sext i32 %70 to i64
  %72 = getelementptr inbounds float, ptr %69, i64 %71
  %73 = load float, ptr %72, align 4, !tbaa !210
  %74 = fpext float %73 to double
  %75 = fsub double %67, %74
  %76 = fptrunc double %75 to float
  %77 = load ptr, ptr %25, align 8, !tbaa !192
  %78 = load i32, ptr %21, align 4, !tbaa !141
  %79 = sext i32 %78 to i64
  %80 = getelementptr inbounds float, ptr %77, i64 %79
  store float %76, ptr %80, align 4, !tbaa !210
  %81 = load double, ptr %22, align 8, !tbaa !194
  %82 = load double, ptr %22, align 8, !tbaa !194
  %83 = fsub double 1.000000e+00, %82
  %84 = fmul double %81, %83
  %85 = fptrunc double %84 to float
  %86 = load ptr, ptr %26, align 8, !tbaa !192
  %87 = load i32, ptr %21, align 4, !tbaa !141
  %88 = sext i32 %87 to i64
  %89 = getelementptr inbounds float, ptr %86, i64 %88
  store float %85, ptr %89, align 4, !tbaa !210
  call void @llvm.lifetime.end.p0(i64 8, ptr %22) #3
  br label %90

90:                                               ; preds = %54
  br label %91

91:                                               ; preds = %90
  %92 = load i32, ptr %13, align 4, !tbaa !141
  %93 = add nsw i32 %92, 1
  store i32 %93, ptr %13, align 4, !tbaa !141
  br label %49

94:                                               ; preds = %53
  br label %95

95:                                               ; preds = %94
  %96 = load ptr, ptr %7, align 8
  %97 = load i32, ptr %96, align 4, !tbaa !141
  call void @__kmpc_for_static_fini(ptr @1, i32 %97)
  call void @llvm.lifetime.end.p0(i64 4, ptr %21) #3
  call void @llvm.lifetime.end.p0(i64 4, ptr %20) #3
  call void @llvm.lifetime.end.p0(i64 4, ptr %19) #3
  call void @llvm.lifetime.end.p0(i64 4, ptr %18) #3
  call void @llvm.lifetime.end.p0(i64 4, ptr %17) #3
  br label %98

98:                                               ; preds = %95, %6
  call void @llvm.lifetime.end.p0(i64 4, ptr %15) #3
  call void @llvm.lifetime.end.p0(i64 4, ptr %14) #3
  call void @llvm.lifetime.end.p0(i64 4, ptr %13) #3
  ret void
}